ARM GAS  C:\Users\strag\AppData\Local\Temp\ccCHnPiN.s 			page 1


   1              		.syntax unified
   2              		.cpu cortex-m4
   3              		.eabi_attribute 27, 1
   4              		.eabi_attribute 28, 1
   5              		.fpu fpv4-sp-d16
   6              		.eabi_attribute 20, 1
   7              		.eabi_attribute 21, 1
   8              		.eabi_attribute 23, 3
   9              		.eabi_attribute 24, 1
  10              		.eabi_attribute 25, 1
  11              		.eabi_attribute 26, 1
  12              		.eabi_attribute 30, 1
  13              		.eabi_attribute 34, 1
  14              		.eabi_attribute 18, 4
  15              		.thumb
  16              		.syntax unified
  17              		.file	"stm32f37x_it.c"
  18              		.text
  19              	.Ltext0:
  20              		.cfi_sections	.debug_frame
  21              		.section	.text.NMI_Handler,"ax",%progbits
  22              		.align	2
  23              		.global	NMI_Handler
  24              		.thumb
  25              		.thumb_func
  27              	NMI_Handler:
  28              	.LFB117:
  29              		.file 1 "./user/source/stm32f37x_it.c"
   1:./user/source/stm32f37x_it.c **** /**
   2:./user/source/stm32f37x_it.c ****   ******************************************************************************
   3:./user/source/stm32f37x_it.c ****   * @file    Project/STM32F37x_StdPeriph_Templates/stm32f37x_it.c 
   4:./user/source/stm32f37x_it.c ****   * @author  MCD Application Team
   5:./user/source/stm32f37x_it.c ****   * @version V1.0.0
   6:./user/source/stm32f37x_it.c ****   * @date    20-September-2012
   7:./user/source/stm32f37x_it.c ****   * @brief   Main Interrupt Service Routines.
   8:./user/source/stm32f37x_it.c ****   *          This file provides template for all exceptions handler and 
   9:./user/source/stm32f37x_it.c ****   *          peripherals interrupt service routine.
  10:./user/source/stm32f37x_it.c ****   ******************************************************************************
  11:./user/source/stm32f37x_it.c ****   * @attention
  12:./user/source/stm32f37x_it.c ****   *
  13:./user/source/stm32f37x_it.c ****   * <h2><center>&copy; COPYRIGHT 2012 STMicroelectronics</center></h2>
  14:./user/source/stm32f37x_it.c ****   *
  15:./user/source/stm32f37x_it.c ****   * Licensed under MCD-ST Liberty SW License Agreement V2, (the "License");
  16:./user/source/stm32f37x_it.c ****   * You may not use this file except in compliance with the License.
  17:./user/source/stm32f37x_it.c ****   * You may obtain a copy of the License at:
  18:./user/source/stm32f37x_it.c ****   *
  19:./user/source/stm32f37x_it.c ****   *        http://www.st.com/software_license_agreement_liberty_v2
  20:./user/source/stm32f37x_it.c ****   *
  21:./user/source/stm32f37x_it.c ****   * Unless required by applicable law or agreed to in writing, software 
  22:./user/source/stm32f37x_it.c ****   * distributed under the License is distributed on an "AS IS" BASIS, 
  23:./user/source/stm32f37x_it.c ****   * WITHOUT WARRANTIES OR CONDITIONS OF ANY KIND, either express or implied.
  24:./user/source/stm32f37x_it.c ****   * See the License for the specific language governing permissions and
  25:./user/source/stm32f37x_it.c ****   * limitations under the License.
  26:./user/source/stm32f37x_it.c ****   *
  27:./user/source/stm32f37x_it.c ****   ******************************************************************************
  28:./user/source/stm32f37x_it.c ****   */
  29:./user/source/stm32f37x_it.c **** 
ARM GAS  C:\Users\strag\AppData\Local\Temp\ccCHnPiN.s 			page 2


  30:./user/source/stm32f37x_it.c **** /* Includes ------------------------------------------------------------------*/
  31:./user/source/stm32f37x_it.c **** //#include "stdlib.h"
  32:./user/source/stm32f37x_it.c **** #include "stm32f37x.h"
  33:./user/source/stm32f37x_it.c **** #include "stm32f37x_it.h"
  34:./user/source/stm32f37x_it.c **** #include "main.h"
  35:./user/source/stm32f37x_it.c **** #include "uart.h"
  36:./user/source/stm32f37x_it.c **** #include "sim800.h"
  37:./user/source/stm32f37x_it.c **** #include "gps.h"
  38:./user/source/stm32f37x_it.c **** #include "FreeRTOS.h"
  39:./user/source/stm32f37x_it.c **** #include "task.h"
  40:./user/source/stm32f37x_it.c **** #include "semphr.h"
  41:./user/source/stm32f37x_it.c **** extern SemaphoreHandle_t xSemGprsRsvd;
  42:./user/source/stm32f37x_it.c **** /** @addtogroup Template_Project
  43:./user/source/stm32f37x_it.c ****   * @{
  44:./user/source/stm32f37x_it.c ****   */
  45:./user/source/stm32f37x_it.c **** 
  46:./user/source/stm32f37x_it.c **** /* Private typedef -----------------------------------------------------------*/
  47:./user/source/stm32f37x_it.c **** /* Private define ------------------------------------------------------------*/
  48:./user/source/stm32f37x_it.c **** /* Private macro -------------------------------------------------------------*/
  49:./user/source/stm32f37x_it.c **** /* Private variables ---------------------------------------------------------*/
  50:./user/source/stm32f37x_it.c **** /* Private function prototypes -----------------------------------------------*/
  51:./user/source/stm32f37x_it.c **** /* Private functions ---------------------------------------------------------*/
  52:./user/source/stm32f37x_it.c **** 
  53:./user/source/stm32f37x_it.c **** /******************************************************************************/
  54:./user/source/stm32f37x_it.c **** /*            Cortex-M4 Processor Exceptions Handlers                         */
  55:./user/source/stm32f37x_it.c **** /******************************************************************************/
  56:./user/source/stm32f37x_it.c **** /**
  57:./user/source/stm32f37x_it.c ****   * @brief  This function handles NMI exception.
  58:./user/source/stm32f37x_it.c ****   * @param  None
  59:./user/source/stm32f37x_it.c ****   * @retval None
  60:./user/source/stm32f37x_it.c ****   */
  61:./user/source/stm32f37x_it.c **** void NMI_Handler(void)
  62:./user/source/stm32f37x_it.c **** {
  30              		.loc 1 62 0
  31              		.cfi_startproc
  32              		@ args = 0, pretend = 0, frame = 0
  33              		@ frame_needed = 0, uses_anonymous_args = 0
  34              		@ link register save eliminated.
  35 0000 7047     		bx	lr
  36              		.cfi_endproc
  37              	.LFE117:
  39 0002 00BF     		.section	.text.HardFault_Handler,"ax",%progbits
  40              		.align	2
  41              		.global	HardFault_Handler
  42              		.thumb
  43              		.thumb_func
  45              	HardFault_Handler:
  46              	.LFB118:
  63:./user/source/stm32f37x_it.c **** }
  64:./user/source/stm32f37x_it.c **** 
  65:./user/source/stm32f37x_it.c **** /**
  66:./user/source/stm32f37x_it.c ****   * @brief  This function handles Hard Fault exception.
  67:./user/source/stm32f37x_it.c ****   * @param  None
  68:./user/source/stm32f37x_it.c ****   * @retval None
  69:./user/source/stm32f37x_it.c ****   */
  70:./user/source/stm32f37x_it.c **** void HardFault_Handler(void)
  71:./user/source/stm32f37x_it.c **** {
ARM GAS  C:\Users\strag\AppData\Local\Temp\ccCHnPiN.s 			page 3


  47              		.loc 1 71 0
  48              		.cfi_startproc
  49              		@ Volatile: function does not return.
  50              		@ args = 0, pretend = 0, frame = 0
  51              		@ frame_needed = 0, uses_anonymous_args = 0
  52              		@ link register save eliminated.
  53              	.L3:
  54 0000 FEE7     		b	.L3
  55              		.cfi_endproc
  56              	.LFE118:
  58 0002 00BF     		.section	.text.MemManage_Handler,"ax",%progbits
  59              		.align	2
  60              		.global	MemManage_Handler
  61              		.thumb
  62              		.thumb_func
  64              	MemManage_Handler:
  65              	.LFB119:
  72:./user/source/stm32f37x_it.c ****     //	if (CoreDebug->DHCSR & 1) {  //check C_DEBUGEN == 1 -> Debugger Connected
  73:./user/source/stm32f37x_it.c ****     //      __breakpoint(0);  // halt program execution here
  74:./user/source/stm32f37x_it.c ****     //  }
  75:./user/source/stm32f37x_it.c **** 
  76:./user/source/stm32f37x_it.c ****     /* Go to infinite loop when Hard Fault exception occurs */
  77:./user/source/stm32f37x_it.c ****     while (1)
  78:./user/source/stm32f37x_it.c ****     {
  79:./user/source/stm32f37x_it.c ****     }
  80:./user/source/stm32f37x_it.c **** }
  81:./user/source/stm32f37x_it.c **** 
  82:./user/source/stm32f37x_it.c **** /**
  83:./user/source/stm32f37x_it.c ****   * @brief  This function handles Memory Manage exception.
  84:./user/source/stm32f37x_it.c ****   * @param  None
  85:./user/source/stm32f37x_it.c ****   * @retval None
  86:./user/source/stm32f37x_it.c ****   */
  87:./user/source/stm32f37x_it.c **** void MemManage_Handler(void)
  88:./user/source/stm32f37x_it.c **** {
  66              		.loc 1 88 0
  67              		.cfi_startproc
  68              		@ Volatile: function does not return.
  69              		@ args = 0, pretend = 0, frame = 0
  70              		@ frame_needed = 0, uses_anonymous_args = 0
  71              		@ link register save eliminated.
  72              	.L5:
  73 0000 FEE7     		b	.L5
  74              		.cfi_endproc
  75              	.LFE119:
  77 0002 00BF     		.section	.text.BusFault_Handler,"ax",%progbits
  78              		.align	2
  79              		.global	BusFault_Handler
  80              		.thumb
  81              		.thumb_func
  83              	BusFault_Handler:
  84              	.LFB120:
  89:./user/source/stm32f37x_it.c ****     /* Go to infinite loop when Memory Manage exception occurs */
  90:./user/source/stm32f37x_it.c ****     while (1)
  91:./user/source/stm32f37x_it.c ****     {
  92:./user/source/stm32f37x_it.c ****     }
  93:./user/source/stm32f37x_it.c **** }
  94:./user/source/stm32f37x_it.c **** 
ARM GAS  C:\Users\strag\AppData\Local\Temp\ccCHnPiN.s 			page 4


  95:./user/source/stm32f37x_it.c **** /**
  96:./user/source/stm32f37x_it.c ****   * @brief  This function handles Bus Fault exception.
  97:./user/source/stm32f37x_it.c ****   * @param  None
  98:./user/source/stm32f37x_it.c ****   * @retval None
  99:./user/source/stm32f37x_it.c ****   */
 100:./user/source/stm32f37x_it.c **** void BusFault_Handler(void)
 101:./user/source/stm32f37x_it.c **** {
  85              		.loc 1 101 0
  86              		.cfi_startproc
  87              		@ Volatile: function does not return.
  88              		@ args = 0, pretend = 0, frame = 0
  89              		@ frame_needed = 0, uses_anonymous_args = 0
  90              		@ link register save eliminated.
  91              	.L7:
  92 0000 FEE7     		b	.L7
  93              		.cfi_endproc
  94              	.LFE120:
  96 0002 00BF     		.section	.text.UsageFault_Handler,"ax",%progbits
  97              		.align	2
  98              		.global	UsageFault_Handler
  99              		.thumb
 100              		.thumb_func
 102              	UsageFault_Handler:
 103              	.LFB121:
 102:./user/source/stm32f37x_it.c ****     /* Go to infinite loop when Bus Fault exception occurs */
 103:./user/source/stm32f37x_it.c ****     while (1)
 104:./user/source/stm32f37x_it.c ****     {
 105:./user/source/stm32f37x_it.c ****     }
 106:./user/source/stm32f37x_it.c **** }
 107:./user/source/stm32f37x_it.c **** 
 108:./user/source/stm32f37x_it.c **** /**
 109:./user/source/stm32f37x_it.c ****   * @brief  This function handles Usage Fault exception.
 110:./user/source/stm32f37x_it.c ****   * @param  None
 111:./user/source/stm32f37x_it.c ****   * @retval None
 112:./user/source/stm32f37x_it.c ****   */
 113:./user/source/stm32f37x_it.c **** void UsageFault_Handler(void)
 114:./user/source/stm32f37x_it.c **** {
 104              		.loc 1 114 0
 105              		.cfi_startproc
 106              		@ Volatile: function does not return.
 107              		@ args = 0, pretend = 0, frame = 0
 108              		@ frame_needed = 0, uses_anonymous_args = 0
 109              		@ link register save eliminated.
 110              	.L9:
 111 0000 FEE7     		b	.L9
 112              		.cfi_endproc
 113              	.LFE121:
 115 0002 00BF     		.section	.text.DebugMon_Handler,"ax",%progbits
 116              		.align	2
 117              		.global	DebugMon_Handler
 118              		.thumb
 119              		.thumb_func
 121              	DebugMon_Handler:
 122              	.LFB122:
 115:./user/source/stm32f37x_it.c ****     /* Go to infinite loop when Usage Fault exception occurs */
 116:./user/source/stm32f37x_it.c ****     while (1)
 117:./user/source/stm32f37x_it.c ****     {
ARM GAS  C:\Users\strag\AppData\Local\Temp\ccCHnPiN.s 			page 5


 118:./user/source/stm32f37x_it.c ****     }
 119:./user/source/stm32f37x_it.c **** }
 120:./user/source/stm32f37x_it.c **** 
 121:./user/source/stm32f37x_it.c **** /**
 122:./user/source/stm32f37x_it.c ****   * @brief  This function handles SVCall exception.
 123:./user/source/stm32f37x_it.c ****   * @param  None
 124:./user/source/stm32f37x_it.c ****   * @retval None
 125:./user/source/stm32f37x_it.c ****   */
 126:./user/source/stm32f37x_it.c **** //void SVC_Handler(void)
 127:./user/source/stm32f37x_it.c **** //{
 128:./user/source/stm32f37x_it.c **** //}
 129:./user/source/stm32f37x_it.c **** 
 130:./user/source/stm32f37x_it.c **** /**
 131:./user/source/stm32f37x_it.c ****   * @brief  This function handles Debug Monitor exception.
 132:./user/source/stm32f37x_it.c ****   * @param  None
 133:./user/source/stm32f37x_it.c ****   * @retval None
 134:./user/source/stm32f37x_it.c ****   */
 135:./user/source/stm32f37x_it.c **** void DebugMon_Handler(void)
 136:./user/source/stm32f37x_it.c **** {
 123              		.loc 1 136 0
 124              		.cfi_startproc
 125              		@ args = 0, pretend = 0, frame = 0
 126              		@ frame_needed = 0, uses_anonymous_args = 0
 127              		@ link register save eliminated.
 128 0000 7047     		bx	lr
 129              		.cfi_endproc
 130              	.LFE122:
 132 0002 00BF     		.section	.text.USART1_IRQHandler,"ax",%progbits
 133              		.align	2
 134              		.global	USART1_IRQHandler
 135              		.thumb
 136              		.thumb_func
 138              	USART1_IRQHandler:
 139              	.LFB123:
 137:./user/source/stm32f37x_it.c **** }
 138:./user/source/stm32f37x_it.c **** 
 139:./user/source/stm32f37x_it.c **** /**
 140:./user/source/stm32f37x_it.c ****   * @brief  This function handles PendSVC exception.
 141:./user/source/stm32f37x_it.c ****   * @param  None
 142:./user/source/stm32f37x_it.c ****   * @retval None
 143:./user/source/stm32f37x_it.c ****   */
 144:./user/source/stm32f37x_it.c **** //void PendSV_Handler(void)
 145:./user/source/stm32f37x_it.c **** //{
 146:./user/source/stm32f37x_it.c **** //}
 147:./user/source/stm32f37x_it.c **** 
 148:./user/source/stm32f37x_it.c **** /**
 149:./user/source/stm32f37x_it.c ****   * @brief  This function handles SysTick Handler.
 150:./user/source/stm32f37x_it.c ****   * @param  None
 151:./user/source/stm32f37x_it.c ****   * @retval None
 152:./user/source/stm32f37x_it.c ****   */
 153:./user/source/stm32f37x_it.c **** //void SysTick_Handler(void)
 154:./user/source/stm32f37x_it.c **** //{
 155:./user/source/stm32f37x_it.c **** 
 156:./user/source/stm32f37x_it.c **** //}
 157:./user/source/stm32f37x_it.c **** 
 158:./user/source/stm32f37x_it.c **** /******************************************************************************/
 159:./user/source/stm32f37x_it.c **** /*                 STM32F37x Peripherals Interrupt Handlers                   */
ARM GAS  C:\Users\strag\AppData\Local\Temp\ccCHnPiN.s 			page 6


 160:./user/source/stm32f37x_it.c **** /*  Add here the Interrupt Handler for the used peripheral(s) (PPP), for the  */
 161:./user/source/stm32f37x_it.c **** /*  available peripheral interrupt handler's name please refer to the startup */
 162:./user/source/stm32f37x_it.c **** /*  file (startup_stm32f37x.s).                                            */
 163:./user/source/stm32f37x_it.c **** /******************************************************************************/
 164:./user/source/stm32f37x_it.c **** 
 165:./user/source/stm32f37x_it.c **** /**
 166:./user/source/stm32f37x_it.c ****   * @brief  This function handles PPP interrupt request.
 167:./user/source/stm32f37x_it.c ****   * @param  None
 168:./user/source/stm32f37x_it.c ****   * @retval None
 169:./user/source/stm32f37x_it.c ****   */
 170:./user/source/stm32f37x_it.c **** /*void PPP_IRQHandler(void)
 171:./user/source/stm32f37x_it.c **** {
 172:./user/source/stm32f37x_it.c **** }*/
 173:./user/source/stm32f37x_it.c **** void USART1_IRQHandler(void)
 174:./user/source/stm32f37x_it.c **** {
 140              		.loc 1 174 0
 141              		.cfi_startproc
 142              		@ args = 0, pretend = 0, frame = 0
 143              		@ frame_needed = 0, uses_anonymous_args = 0
 144              		.loc 1 174 0
 145 0000 70B5     		push	{r4, r5, r6, lr}
 146              	.LCFI0:
 147              		.cfi_def_cfa_offset 16
 148              		.cfi_offset 4, -16
 149              		.cfi_offset 5, -12
 150              		.cfi_offset 6, -8
 151              		.cfi_offset 14, -4
 175:./user/source/stm32f37x_it.c ****     if (USART_GetFlagStatus(USART3, USART_FLAG_ORE) == SET)
 152              		.loc 1 175 0
 153 0002 0821     		movs	r1, #8
 154 0004 3848     		ldr	r0, .L18
 155 0006 FFF7FEFF 		bl	USART_GetFlagStatus
 156              	.LVL0:
 157 000a 0128     		cmp	r0, #1
 158 000c 03D1     		bne	.L12
 176:./user/source/stm32f37x_it.c ****         USART_ClearFlag(USART3, USART_FLAG_ORE);
 159              		.loc 1 176 0
 160 000e 0821     		movs	r1, #8
 161 0010 3548     		ldr	r0, .L18
 162 0012 FFF7FEFF 		bl	USART_ClearFlag
 163              	.LVL1:
 164              	.L12:
 177:./user/source/stm32f37x_it.c **** 
 178:./user/source/stm32f37x_it.c ****     if (USART_GetITStatus(USART1, USART_IT_RXNE) != RESET)
 165              		.loc 1 178 0
 166 0016 3549     		ldr	r1, .L18+4
 167 0018 3548     		ldr	r0, .L18+8
 168 001a FFF7FEFF 		bl	USART_GetITStatus
 169              	.LVL2:
 170 001e 0028     		cmp	r0, #0
 171 0020 33D0     		beq	.L13
 179:./user/source/stm32f37x_it.c ****     {
 180:./user/source/stm32f37x_it.c ****         USART_ClearITPendingBit(USART1, USART_IT_RXNE);
 172              		.loc 1 180 0
 173 0022 3249     		ldr	r1, .L18+4
 174 0024 3248     		ldr	r0, .L18+8
 175 0026 FFF7FEFF 		bl	USART_ClearITPendingBit
ARM GAS  C:\Users\strag\AppData\Local\Temp\ccCHnPiN.s 			page 7


 176              	.LVL3:
 181:./user/source/stm32f37x_it.c ****         if (pUartGPS->pRsvbuf->rd == (pUartGPS->pRsvbuf->wr + 1) % BUF_SIZE)
 177              		.loc 1 181 0
 178 002a 324B     		ldr	r3, .L18+12
 179 002c 1B68     		ldr	r3, [r3]
 180 002e 5C68     		ldr	r4, [r3, #4]
 181 0030 D4F80024 		ldr	r2, [r4, #1024]
 182 0034 D4F80454 		ldr	r5, [r4, #1028]
 183 0038 6E1C     		adds	r6, r5, #1
 184 003a 2F48     		ldr	r0, .L18+16
 185 003c A6FB0001 		umull	r0, r1, r6, r0
 186 0040 731A     		subs	r3, r6, r1
 187 0042 01EB5303 		add	r3, r1, r3, lsr #1
 188 0046 5B0A     		lsrs	r3, r3, #9
 189 0048 C3EB8323 		rsb	r3, r3, r3, lsl #10
 190 004c F31A     		subs	r3, r6, r3
 191 004e 9A42     		cmp	r2, r3
 192 0050 05D1     		bne	.L14
 182:./user/source/stm32f37x_it.c ****         {
 183:./user/source/stm32f37x_it.c ****             USART_ITConfig(USART1, USART_IT_RXNE, DISABLE);
 193              		.loc 1 183 0
 194 0052 0022     		movs	r2, #0
 195 0054 2549     		ldr	r1, .L18+4
 196 0056 2648     		ldr	r0, .L18+8
 197 0058 FFF7FEFF 		bl	USART_ITConfig
 198              	.LVL4:
 199 005c 15E0     		b	.L13
 200              	.L14:
 184:./user/source/stm32f37x_it.c ****         }
 185:./user/source/stm32f37x_it.c ****         else
 186:./user/source/stm32f37x_it.c ****         {
 187:./user/source/stm32f37x_it.c ****             pUartGPS->pRsvbuf->data[pUartGPS->pRsvbuf->wr] = (uint8_t)USART_ReceiveData(USART1);
 201              		.loc 1 187 0
 202 005e 2448     		ldr	r0, .L18+8
 203 0060 FFF7FEFF 		bl	USART_ReceiveData
 204              	.LVL5:
 205 0064 6055     		strb	r0, [r4, r5]
 188:./user/source/stm32f37x_it.c ****             pUartGPS->pRsvbuf->wr = (pUartGPS->pRsvbuf->wr + 1) % BUF_SIZE;
 206              		.loc 1 188 0
 207 0066 234B     		ldr	r3, .L18+12
 208 0068 1B68     		ldr	r3, [r3]
 209 006a 5C68     		ldr	r4, [r3, #4]
 210 006c D4F80424 		ldr	r2, [r4, #1028]
 211 0070 0132     		adds	r2, r2, #1
 212 0072 2148     		ldr	r0, .L18+16
 213 0074 A2FB0001 		umull	r0, r1, r2, r0
 214 0078 531A     		subs	r3, r2, r1
 215 007a 01EB5303 		add	r3, r1, r3, lsr #1
 216 007e 5B0A     		lsrs	r3, r3, #9
 217 0080 C3EB8323 		rsb	r3, r3, r3, lsl #10
 218 0084 D31A     		subs	r3, r2, r3
 219 0086 C4F80434 		str	r3, [r4, #1028]
 220              	.L13:
 189:./user/source/stm32f37x_it.c ****         }
 190:./user/source/stm32f37x_it.c ****     };
 191:./user/source/stm32f37x_it.c **** 
 192:./user/source/stm32f37x_it.c ****     if (USART_GetITStatus(USART1, USART_IT_TXE) != RESET)
ARM GAS  C:\Users\strag\AppData\Local\Temp\ccCHnPiN.s 			page 8


 221              		.loc 1 192 0
 222 008a 1C49     		ldr	r1, .L18+20
 223 008c 1848     		ldr	r0, .L18+8
 224 008e FFF7FEFF 		bl	USART_GetITStatus
 225              	.LVL6:
 226 0092 40B3     		cbz	r0, .L11
 193:./user/source/stm32f37x_it.c ****     {
 194:./user/source/stm32f37x_it.c ****         USART_ClearITPendingBit(USART1, USART_IT_TXE);
 227              		.loc 1 194 0
 228 0094 1949     		ldr	r1, .L18+20
 229 0096 1648     		ldr	r0, .L18+8
 230 0098 FFF7FEFF 		bl	USART_ClearITPendingBit
 231              	.LVL7:
 195:./user/source/stm32f37x_it.c ****         if (pUartGPS->pSndbuf->rd == pUartGPS->pSndbuf->wr)
 232              		.loc 1 195 0
 233 009c 154B     		ldr	r3, .L18+12
 234 009e 1B68     		ldr	r3, [r3]
 235 00a0 9B68     		ldr	r3, [r3, #8]
 236 00a2 D3F80024 		ldr	r2, [r3, #1024]
 237 00a6 D3F80414 		ldr	r1, [r3, #1028]
 238 00aa 8A42     		cmp	r2, r1
 239 00ac 05D1     		bne	.L16
 196:./user/source/stm32f37x_it.c ****         {
 197:./user/source/stm32f37x_it.c ****             USART_ITConfig(USART1, USART_IT_TXE, DISABLE);
 240              		.loc 1 197 0
 241 00ae 0022     		movs	r2, #0
 242 00b0 1249     		ldr	r1, .L18+20
 243 00b2 0F48     		ldr	r0, .L18+8
 244 00b4 FFF7FEFF 		bl	USART_ITConfig
 245              	.LVL8:
 246 00b8 70BD     		pop	{r4, r5, r6, pc}
 247              	.L16:
 198:./user/source/stm32f37x_it.c ****         }
 199:./user/source/stm32f37x_it.c ****         else
 200:./user/source/stm32f37x_it.c ****         {
 201:./user/source/stm32f37x_it.c ****             USART_SendData(USART1, (uint16_t)pUartGPS->pSndbuf->data[pUartGPS->pSndbuf->rd]);
 248              		.loc 1 201 0
 249 00ba 995C     		ldrb	r1, [r3, r2]	@ zero_extendqisi2
 250 00bc 0C48     		ldr	r0, .L18+8
 251 00be FFF7FEFF 		bl	USART_SendData
 252              	.LVL9:
 202:./user/source/stm32f37x_it.c ****             pUartGPS->pSndbuf->rd = (pUartGPS->pSndbuf->rd + 1) % BUF_SIZE;
 253              		.loc 1 202 0
 254 00c2 0C4B     		ldr	r3, .L18+12
 255 00c4 1B68     		ldr	r3, [r3]
 256 00c6 9C68     		ldr	r4, [r3, #8]
 257 00c8 D4F80024 		ldr	r2, [r4, #1024]
 258 00cc 0132     		adds	r2, r2, #1
 259 00ce 0A48     		ldr	r0, .L18+16
 260 00d0 A2FB0001 		umull	r0, r1, r2, r0
 261 00d4 531A     		subs	r3, r2, r1
 262 00d6 01EB5303 		add	r3, r1, r3, lsr #1
 263 00da 5B0A     		lsrs	r3, r3, #9
 264 00dc C3EB8323 		rsb	r3, r3, r3, lsl #10
 265 00e0 D31A     		subs	r3, r2, r3
 266 00e2 C4F80034 		str	r3, [r4, #1024]
 267              	.L11:
ARM GAS  C:\Users\strag\AppData\Local\Temp\ccCHnPiN.s 			page 9


 268 00e6 70BD     		pop	{r4, r5, r6, pc}
 269              	.L19:
 270              		.align	2
 271              	.L18:
 272 00e8 00480040 		.word	1073760256
 273 00ec 05010500 		.word	327941
 274 00f0 00380140 		.word	1073821696
 275 00f4 00000000 		.word	pUartGPS
 276 00f8 05104000 		.word	4198405
 277 00fc 07010700 		.word	459015
 278              		.cfi_endproc
 279              	.LFE123:
 281              		.section	.text.USART2_IRQHandler,"ax",%progbits
 282              		.align	2
 283              		.global	USART2_IRQHandler
 284              		.thumb
 285              		.thumb_func
 287              	USART2_IRQHandler:
 288              	.LFB124:
 203:./user/source/stm32f37x_it.c ****         }
 204:./user/source/stm32f37x_it.c ****     };
 205:./user/source/stm32f37x_it.c **** }
 206:./user/source/stm32f37x_it.c **** 
 207:./user/source/stm32f37x_it.c **** void USART2_IRQHandler(void)
 208:./user/source/stm32f37x_it.c **** {
 289              		.loc 1 208 0
 290              		.cfi_startproc
 291              		@ args = 0, pretend = 0, frame = 0
 292              		@ frame_needed = 0, uses_anonymous_args = 0
 293              		@ link register save eliminated.
 294 0000 7047     		bx	lr
 295              		.cfi_endproc
 296              	.LFE124:
 298 0002 00BF     		.section	.text.USART3_IRQHandler,"ax",%progbits
 299              		.align	2
 300              		.global	USART3_IRQHandler
 301              		.thumb
 302              		.thumb_func
 304              	USART3_IRQHandler:
 305              	.LFB125:
 209:./user/source/stm32f37x_it.c **** }
 210:./user/source/stm32f37x_it.c **** void USART3_IRQHandler(void)
 211:./user/source/stm32f37x_it.c **** {
 306              		.loc 1 211 0
 307              		.cfi_startproc
 308              		@ args = 0, pretend = 0, frame = 0
 309              		@ frame_needed = 0, uses_anonymous_args = 0
 310              		.loc 1 211 0
 311 0000 70B5     		push	{r4, r5, r6, lr}
 312              	.LCFI1:
 313              		.cfi_def_cfa_offset 16
 314              		.cfi_offset 4, -16
 315              		.cfi_offset 5, -12
 316              		.cfi_offset 6, -8
 317              		.cfi_offset 14, -4
 212:./user/source/stm32f37x_it.c ****     if (USART_GetFlagStatus(USART3, USART_FLAG_ORE))
 318              		.loc 1 212 0
ARM GAS  C:\Users\strag\AppData\Local\Temp\ccCHnPiN.s 			page 10


 319 0002 0821     		movs	r1, #8
 320 0004 3148     		ldr	r0, .L27
 321 0006 FFF7FEFF 		bl	USART_GetFlagStatus
 322              	.LVL10:
 323 000a 18B1     		cbz	r0, .L22
 213:./user/source/stm32f37x_it.c ****     {
 214:./user/source/stm32f37x_it.c ****         USART_ClearFlag(USART3, USART_FLAG_ORE);
 324              		.loc 1 214 0
 325 000c 0821     		movs	r1, #8
 326 000e 2F48     		ldr	r0, .L27
 327 0010 FFF7FEFF 		bl	USART_ClearFlag
 328              	.LVL11:
 329              	.L22:
 215:./user/source/stm32f37x_it.c ****     }
 216:./user/source/stm32f37x_it.c ****     if (RESET != USART_GetITStatus(USART3, USART_IT_RXNE)) //读一个字节入串口3接收缓存
 330              		.loc 1 216 0
 331 0014 2E49     		ldr	r1, .L27+4
 332 0016 2D48     		ldr	r0, .L27
 333 0018 FFF7FEFF 		bl	USART_GetITStatus
 334              	.LVL12:
 335 001c F8B1     		cbz	r0, .L23
 217:./user/source/stm32f37x_it.c ****     {
 218:./user/source/stm32f37x_it.c ****         if (uwBuf_EmpLen(pUartGPRS->pRsvbuf))
 336              		.loc 1 218 0
 337 001e 2D4B     		ldr	r3, .L27+8
 338 0020 1B68     		ldr	r3, [r3]
 339 0022 5868     		ldr	r0, [r3, #4]
 340 0024 FFF7FEFF 		bl	uwBuf_EmpLen
 341              	.LVL13:
 342 0028 C8B1     		cbz	r0, .L23
 219:./user/source/stm32f37x_it.c ****         {
 220:./user/source/stm32f37x_it.c ****             pUartGPRS->pRsvbuf->data[pUartGPRS->pRsvbuf->wr] = (uint8_t)USART_ReceiveData(USART3);
 343              		.loc 1 220 0
 344 002a 2A4C     		ldr	r4, .L27+8
 345 002c 2368     		ldr	r3, [r4]
 346 002e 5D68     		ldr	r5, [r3, #4]
 347 0030 D5F80464 		ldr	r6, [r5, #1028]
 348 0034 2548     		ldr	r0, .L27
 349 0036 FFF7FEFF 		bl	USART_ReceiveData
 350              	.LVL14:
 351 003a A855     		strb	r0, [r5, r6]
 221:./user/source/stm32f37x_it.c ****             pUartGPRS->pRsvbuf->wr = (++pUartGPRS->pRsvbuf->wr) % BUF_SIZE;
 352              		.loc 1 221 0
 353 003c 2368     		ldr	r3, [r4]
 354 003e 5C68     		ldr	r4, [r3, #4]
 355 0040 D4F80424 		ldr	r2, [r4, #1028]
 356 0044 0132     		adds	r2, r2, #1
 357 0046 2448     		ldr	r0, .L27+12
 358 0048 A2FB0001 		umull	r0, r1, r2, r0
 359 004c 531A     		subs	r3, r2, r1
 360 004e 01EB5303 		add	r3, r1, r3, lsr #1
 361 0052 5B0A     		lsrs	r3, r3, #9
 362 0054 C3EB8323 		rsb	r3, r3, r3, lsl #10
 363 0058 D31A     		subs	r3, r2, r3
 364 005a C4F80434 		str	r3, [r4, #1028]
 365              	.L23:
 222:./user/source/stm32f37x_it.c ****         }
ARM GAS  C:\Users\strag\AppData\Local\Temp\ccCHnPiN.s 			page 11


 223:./user/source/stm32f37x_it.c ****     }
 224:./user/source/stm32f37x_it.c ****     if (USART_GetITStatus(USART3, USART_IT_TXE) != RESET)
 366              		.loc 1 224 0
 367 005e 1F49     		ldr	r1, .L27+16
 368 0060 1A48     		ldr	r0, .L27
 369 0062 FFF7FEFF 		bl	USART_GetITStatus
 370              	.LVL15:
 371 0066 38B3     		cbz	r0, .L24
 225:./user/source/stm32f37x_it.c ****     {
 226:./user/source/stm32f37x_it.c ****         USART_ClearITPendingBit(USART3, USART_IT_TXE);
 372              		.loc 1 226 0
 373 0068 184D     		ldr	r5, .L27
 374 006a 1C49     		ldr	r1, .L27+16
 375 006c 2846     		mov	r0, r5
 376 006e FFF7FEFF 		bl	USART_ClearITPendingBit
 377              	.LVL16:
 227:./user/source/stm32f37x_it.c ****         USART_SendData(USART3, (uint16_t)pUartGPRS->pSndbuf->data[pUartGPRS->pSndbuf->rd]);
 378              		.loc 1 227 0
 379 0072 184C     		ldr	r4, .L27+8
 380 0074 2368     		ldr	r3, [r4]
 381 0076 9B68     		ldr	r3, [r3, #8]
 382 0078 D3F80024 		ldr	r2, [r3, #1024]
 383 007c 995C     		ldrb	r1, [r3, r2]	@ zero_extendqisi2
 384 007e 2846     		mov	r0, r5
 385 0080 FFF7FEFF 		bl	USART_SendData
 386              	.LVL17:
 228:./user/source/stm32f37x_it.c ****         pUartGPRS->pSndbuf->rd = (++pUartGPRS->pSndbuf->rd) % BUF_SIZE;
 387              		.loc 1 228 0
 388 0084 2468     		ldr	r4, [r4]
 389 0086 A568     		ldr	r5, [r4, #8]
 390 0088 D5F80024 		ldr	r2, [r5, #1024]
 391 008c 0132     		adds	r2, r2, #1
 392 008e 1248     		ldr	r0, .L27+12
 393 0090 A2FB0001 		umull	r0, r1, r2, r0
 394 0094 531A     		subs	r3, r2, r1
 395 0096 01EB5303 		add	r3, r1, r3, lsr #1
 396 009a 5B0A     		lsrs	r3, r3, #9
 397 009c C3EB8323 		rsb	r3, r3, r3, lsl #10
 398 00a0 D31A     		subs	r3, r2, r3
 399 00a2 C5F80034 		str	r3, [r5, #1024]
 229:./user/source/stm32f37x_it.c ****         if (uwBuf_UnReadLen(pUartGPRS->pSndbuf) == 0)
 400              		.loc 1 229 0
 401 00a6 A068     		ldr	r0, [r4, #8]
 402 00a8 FFF7FEFF 		bl	uwBuf_UnReadLen
 403              	.LVL18:
 404 00ac 20B9     		cbnz	r0, .L24
 230:./user/source/stm32f37x_it.c ****             USART_ITConfig(USART3, USART_IT_TXE, DISABLE);
 405              		.loc 1 230 0
 406 00ae 0022     		movs	r2, #0
 407 00b0 0A49     		ldr	r1, .L27+16
 408 00b2 0648     		ldr	r0, .L27
 409 00b4 FFF7FEFF 		bl	USART_ITConfig
 410              	.LVL19:
 411              	.L24:
 231:./user/source/stm32f37x_it.c ****     }
 232:./user/source/stm32f37x_it.c ****     if (USART_GetITStatus(USART3, USART_IT_IDLE) != RESET)
 412              		.loc 1 232 0
ARM GAS  C:\Users\strag\AppData\Local\Temp\ccCHnPiN.s 			page 12


 413 00b8 0949     		ldr	r1, .L27+20
 414 00ba 0448     		ldr	r0, .L27
 415 00bc FFF7FEFF 		bl	USART_GetITStatus
 416              	.LVL20:
 417 00c0 18B1     		cbz	r0, .L21
 233:./user/source/stm32f37x_it.c ****     {
 234:./user/source/stm32f37x_it.c ****         USART_ClearITPendingBit(USART3, USART_IT_IDLE);
 418              		.loc 1 234 0
 419 00c2 0749     		ldr	r1, .L27+20
 420 00c4 0148     		ldr	r0, .L27
 421 00c6 FFF7FEFF 		bl	USART_ClearITPendingBit
 422              	.LVL21:
 423              	.L21:
 424 00ca 70BD     		pop	{r4, r5, r6, pc}
 425              	.L28:
 426              		.align	2
 427              	.L27:
 428 00cc 00480040 		.word	1073760256
 429 00d0 05010500 		.word	327941
 430 00d4 00000000 		.word	pUartGPRS
 431 00d8 05104000 		.word	4198405
 432 00dc 07010700 		.word	459015
 433 00e0 04010400 		.word	262404
 434              		.cfi_endproc
 435              	.LFE125:
 437              		.section	.text.TIM2_IRQHandler,"ax",%progbits
 438              		.align	2
 439              		.global	TIM2_IRQHandler
 440              		.thumb
 441              		.thumb_func
 443              	TIM2_IRQHandler:
 444              	.LFB126:
 235:./user/source/stm32f37x_it.c ****         //xSemaphoreGiveFromISR(xSemGprsRsvd, vTaskPPPRead);
 236:./user/source/stm32f37x_it.c ****     }
 237:./user/source/stm32f37x_it.c **** }
 238:./user/source/stm32f37x_it.c **** 
 239:./user/source/stm32f37x_it.c **** void TIM2_IRQHandler(void)
 240:./user/source/stm32f37x_it.c **** {
 445              		.loc 1 240 0
 446              		.cfi_startproc
 447              		@ args = 0, pretend = 0, frame = 0
 448              		@ frame_needed = 0, uses_anonymous_args = 0
 449              		@ link register save eliminated.
 450 0000 7047     		bx	lr
 451              		.cfi_endproc
 452              	.LFE126:
 454 0002 00BF     		.text
 455              	.Letext0:
 456              		.file 2 "d:\\gcc-arm-none-eabi-5_4-2016q3-20160926-win32\\arm-none-eabi\\include\\machine\\_defaul
 457              		.file 3 "d:\\gcc-arm-none-eabi-5_4-2016q3-20160926-win32\\arm-none-eabi\\include\\sys\\_stdint.h"
 458              		.file 4 "cmsis/include/stm32f37x.h"
 459              		.file 5 "user/include/uart.h"
 460              		.file 6 "cmsis/include/core_cm4.h"
 461              		.file 7 "stdperiph/include/stm32f37x_usart.h"
ARM GAS  C:\Users\strag\AppData\Local\Temp\ccCHnPiN.s 			page 13

